; Function Attrs: null_pointer_is_valid sspstrong uwtable
define internal i32 @dissect_kpasswd_tcp_pdu(ptr noundef %0, ptr noundef initializes((272, 273)) %1, ptr noundef %2, ptr readnone captures(none) %3) #0 {
  %5 = getelementptr inbounds nuw i8, ptr %1, i64 272
  store i8 1, ptr %5, align 8
  %6 = tail call fastcc i32 @dissect_kpasswd_common(ptr noundef %0, ptr noundef %1, ptr noundef %2, i1 noundef zeroext true)
  %7 = icmp slt i32 %6, 0
  br i1 %7, label %8, label %11

8:                                                ; preds = %4
  %9 = getelementptr inbounds nuw i8, ptr %1, i64 8
  %10 = load ptr, ptr %9, align 8
  tail call void @col_set_str(ptr noundef %10, i32 noundef 25, ptr noundef nonnull @.str.47)
  br label %11

11:                                               ; preds = %8, %4
  %12 = tail call i32 @tvb_captured_length(ptr noundef %0)
  ret i32 %12
}